target datalayout = "e-m:e-p270:32:32-p271:32:32-p272:64:64-i64:64-i128:128-f80:128-n8:16:32:64-S128"
target triple = "x86_64-pc-linux-gnu"

; Function Attrs: nounwind uwtable
define internal i32 @utf8_isInvalid3(ptr noundef %0, ptr noundef %1) #0 {
  %3 = alloca ptr, align 8
  %4 = alloca ptr, align 8
  store ptr %0, ptr %3, align 8, !tbaa !45
  store ptr %1, ptr %4, align 8, !tbaa !4
  %5 = load ptr, ptr %4, align 8, !tbaa !4
  %6 = getelementptr inbounds i8, ptr %5, i64 2
  %7 = load i8, ptr %6, align 1, !tbaa !13
  %8 = zext i8 %7 to i32
  %9 = and i32 %8, 128
  %10 = icmp eq i32 %9, 0
  br i1 %10, label %92, label %11

11:                                               ; preds = %2
  %12 = load ptr, ptr %4, align 8, !tbaa !4
  %13 = load i8, ptr %12, align 1, !tbaa !13
  %14 = zext i8 %13 to i32
  %15 = icmp eq i32 %14, 239
  br i1 %15, label %16, label %28

16:                                               ; preds = %11
  %17 = load ptr, ptr %4, align 8, !tbaa !4
  %18 = getelementptr inbounds i8, ptr %17, i64 1
  %19 = load i8, ptr %18, align 1, !tbaa !13
  %20 = zext i8 %19 to i32
  %21 = icmp eq i32 %20, 191
  br i1 %21, label %22, label %28

22:                                               ; preds = %16
  %23 = load ptr, ptr %4, align 8, !tbaa !4
  %24 = getelementptr inbounds i8, ptr %23, i64 2
  %25 = load i8, ptr %24, align 1, !tbaa !13
  %26 = zext i8 %25 to i32
  %27 = icmp sgt i32 %26, 189
  br i1 %27, label %92, label %35

28:                                               ; preds = %16, %11
  %29 = load ptr, ptr %4, align 8, !tbaa !4
  %30 = getelementptr inbounds i8, ptr %29, i64 2
  %31 = load i8, ptr %30, align 1, !tbaa !13
  %32 = zext i8 %31 to i32
  %33 = and i32 %32, 192
  %34 = icmp eq i32 %33, 192
  br i1 %34, label %92, label %35

35:                                               ; preds = %28, %22
  %36 = load ptr, ptr %4, align 8, !tbaa !4
  %37 = load i8, ptr %36, align 1, !tbaa !13
  %38 = zext i8 %37 to i32
  %39 = icmp eq i32 %38, 224
  br i1 %39, label %40, label %56

40:                                               ; preds = %35
  %41 = load ptr, ptr %4, align 8, !tbaa !4
  %42 = getelementptr inbounds i8, ptr %41, i64 1
  %43 = load i8, ptr %42, align 1, !tbaa !13
  %44 = zext i8 %43 to i32
  %45 = icmp slt i32 %44, 160
  br i1 %45, label %53, label %46

46:                                               ; preds = %40
  %47 = load ptr, ptr %4, align 8, !tbaa !4
  %48 = getelementptr inbounds i8, ptr %47, i64 1
  %49 = load i8, ptr %48, align 1, !tbaa !13
  %50 = zext i8 %49 to i32
  %51 = and i32 %50, 192
  %52 = icmp eq i32 %51, 192
  br label %53

53:                                               ; preds = %46, %40
  %54 = phi i1 [ true, %40 ], [ %52, %46 ]
  %55 = zext i1 %54 to i32
  br label %89

56:                                               ; preds = %35
  %57 = load ptr, ptr %4, align 8, !tbaa !4
  %58 = getelementptr inbounds i8, ptr %57, i64 1
  %59 = load i8, ptr %58, align 1, !tbaa !13
  %60 = zext i8 %59 to i32
  %61 = and i32 %60, 128
  %62 = icmp eq i32 %61, 0
  br i1 %62, label %86, label %63

63:                                               ; preds = %56
  %64 = load ptr, ptr %4, align 8, !tbaa !4
  %65 = load i8, ptr %64, align 1, !tbaa !13
  %66 = zext i8 %65 to i32
  %67 = icmp eq i32 %66, 237
  br i1 %67, label %68, label %75

68:                                               ; preds = %63
  %69 = load ptr, ptr %4, align 8, !tbaa !4
  %70 = getelementptr inbounds i8, ptr %69, i64 1
  %71 = load i8, ptr %70, align 1, !tbaa !13
  %72 = zext i8 %71 to i32
  %73 = icmp sgt i32 %72, 159
  %74 = zext i1 %73 to i32
  br label %83

75:                                               ; preds = %63
  %76 = load ptr, ptr %4, align 8, !tbaa !4
  %77 = getelementptr inbounds i8, ptr %76, i64 1
  %78 = load i8, ptr %77, align 1, !tbaa !13
  %79 = zext i8 %78 to i32
  %80 = and i32 %79, 192
  %81 = icmp eq i32 %80, 192
  %82 = zext i1 %81 to i32
  br label %83

83:                                               ; preds = %75, %68
  %84 = phi i32 [ %74, %68 ], [ %82, %75 ]
  %85 = icmp ne i32 %84, 0
  br label %86

86:                                               ; preds = %83, %56
  %87 = phi i1 [ true, %56 ], [ %85, %83 ]
  %88 = zext i1 %87 to i32
  br label %89

89:                                               ; preds = %86, %53
  %90 = phi i32 [ %55, %53 ], [ %88, %86 ]
  %91 = icmp ne i32 %90, 0
  br label %92

92:                                               ; preds = %89, %28, %22, %2
  %93 = phi i1 [ true, %28 ], [ true, %22 ], [ true, %2 ], [ %91, %89 ]
  %94 = zext i1 %93 to i32
  ret i32 %94
}