; Function Attrs: mustprogress nofree norecurse nosync nounwind willreturn memory(argmem: read) uwtable
define internal range(i32 0, 2) i32 @utf8_isInvalid3(ptr readnone captures(none) %0, ptr noundef readonly captures(none) %1) #8 {
  %3 = getelementptr inbounds nuw i8, ptr %1, i64 2
  %4 = load i8, ptr %3, align 1, !tbaa !9
  %5 = icmp sgt i8 %4, -1
  br i1 %5, label %30, label %6

6:                                                ; preds = %2
  %7 = load i8, ptr %1, align 1, !tbaa !9
  %8 = icmp eq i8 %7, -17
  br i1 %8, label %9, label %15

9:                                                ; preds = %6
  %10 = getelementptr inbounds nuw i8, ptr %1, i64 1
  %11 = load i8, ptr %10, align 1, !tbaa !9
  %12 = icmp eq i8 %11, -65
  br i1 %12, label %13, label %.thread13

13:                                               ; preds = %9
  %14 = icmp samesign ugt i8 %4, -67
  br i1 %14, label %30, label %.thread.thread

15:                                               ; preds = %6
  %16 = icmp samesign ugt i8 %4, -65
  br i1 %16, label %30, label %18

.thread13:                                        ; preds = %9
  %17 = icmp samesign ugt i8 %4, -65
  br i1 %17, label %30, label %.thread

18:                                               ; preds = %15
  %19 = icmp eq i8 %7, -32
  %20 = getelementptr inbounds nuw i8, ptr %1, i64 1
  %21 = load i8, ptr %20, align 1, !tbaa !9
  br i1 %19, label %22, label %.thread

22:                                               ; preds = %18
  %23 = add i8 %21, 64
  %narrow = icmp ult i8 %23, -32
  br label %28

.thread:                                          ; preds = %18, %.thread13
  %24 = phi i8 [ %11, %.thread13 ], [ %21, %18 ]
  %25 = icmp sgt i8 %24, -1
  br i1 %25, label %28, label %.thread.thread

.thread.thread:                                   ; preds = %13, %.thread
  %26 = phi i8 [ %24, %.thread ], [ -65, %13 ]
  %27 = icmp eq i8 %7, -19
  %.in.v = select i1 %27, i8 -97, i8 -65
  %.in = icmp samesign ugt i8 %26, %.in.v
  br label %28

28:                                               ; preds = %.thread, %.thread.thread, %22
  %.shrunk = phi i1 [ %narrow, %22 ], [ true, %.thread ], [ %.in, %.thread.thread ]
  %29 = zext i1 %.shrunk to i32
  br label %30

30:                                               ; preds = %.thread13, %28, %15, %13, %2
  %31 = phi i32 [ 1, %15 ], [ 1, %13 ], [ 1, %2 ], [ %29, %28 ], [ 1, %.thread13 ]
  ret i32 %31
}